; Function Attrs: nounwind sspstrong uwtable
define internal i64 @io_buffer_set_string(i32 noundef %0, ptr noundef readonly captures(none) %1, i64 noundef %2) #0 {
  %4 = add i32 %0, -5
  %or.cond.i = icmp ult i32 %4, -4
  br i1 %or.cond.i, label %5, label %rb_check_arity.exit

5:                                                ; preds = %3
  tail call void @rb_error_arity(i32 noundef %0, i32 noundef 1, i32 noundef 4) #26
  unreachable

rb_check_arity.exit:                              ; preds = %3
  %6 = tail call ptr @rb_check_typeddata(i64 noundef %2, ptr noundef nonnull @rb_io_buffer_type) #25
  %7 = load i64, ptr %1, align 8, !tbaa !22
  %8 = tail call i64 @rb_str_to_str(i64 noundef %7) #25
  %9 = inttoptr i64 %8 to ptr
  %10 = load i64, ptr %9, align 8, !tbaa !28, !noalias !83
  %11 = and i64 %10, 8192
  %.not.i.i = icmp eq i64 %11, 0
  %12 = getelementptr inbounds nuw i8, ptr %9, i64 24
  br i1 %.not.i.i, label %RSTRING_PTR.exit, label %13

13:                                               ; preds = %rb_check_arity.exit
  %.sroa.2.0.copyload.i = load ptr, ptr %12, align 8
  br label %RSTRING_PTR.exit

RSTRING_PTR.exit:                                 ; preds = %rb_check_arity.exit, %13
  %.sroa.2.0.i = phi ptr [ %.sroa.2.0.copyload.i, %13 ], [ %12, %rb_check_arity.exit ]
  %14 = getelementptr inbounds nuw i8, ptr %9, i64 16
  %15 = load i64, ptr %14, align 8, !tbaa !32
  %16 = add nsw i32 %0, -1
  %17 = getelementptr i8, ptr %1, i64 8
  %18 = tail call fastcc i64 @io_buffer_copy_from(ptr noundef %6, ptr noundef %.sroa.2.0.i, i64 noundef %15, i32 noundef %16, ptr noundef %17)
  ret i64 %18
}